; ModuleID = '24/1822.c'
source_filename = "24/1822.c"
target datalayout = "e-m:e-p270:32:32-p271:32:32-p272:64:64-i64:64-f80:128-n8:16:32:64-S128"
target triple = "x86_64-pc-linux-gnu"

@.str = private unnamed_addr constant [3 x i8] c"%c\00", align 1
@.str.1 = private unnamed_addr constant [2 x i8] c"\0A\00", align 1

; Function Attrs: noinline nounwind uwtable
define dso_local i32 @main() #0 {
  %1 = alloca i32, align 4
  %2 = alloca [3100 x i8], align 16
  %3 = alloca i32, align 4
  %4 = alloca [100 x i32], align 16
  %5 = alloca i32, align 4
  %6 = alloca i32, align 4
  %7 = alloca i32, align 4
  %8 = alloca i32, align 4
  %9 = alloca [100 x i32], align 16
  %10 = alloca i32, align 4
  %11 = alloca i32, align 4
  store i32 0, i32* %1, align 4
  store i32 0, i32* %7, align 4
  store i32 0, i32* %8, align 4
  store i32 1, i32* %10, align 4
  %12 = getelementptr inbounds [3100 x i8], [3100 x i8]* %2, i64 0, i64 0
  %13 = call i32 (i8*, ...) bitcast (i32 (...)* @gets to i32 (i8*, ...)*)(i8* %12)
  %14 = getelementptr inbounds [3100 x i8], [3100 x i8]* %2, i64 0, i64 0
  %15 = call i64 @strlen(i8* %14) #3
  %16 = trunc i64 %15 to i32
  store i32 %16, i32* %3, align 4
  %17 = load i32, i32* %3, align 4
  %18 = sext i32 %17 to i64
  %19 = getelementptr inbounds [3100 x i8], [3100 x i8]* %2, i64 0, i64 %18
  store i8 32, i8* %19, align 1
  %20 = load i32, i32* %3, align 4
  %21 = add nsw i32 %20, 1
  %22 = sext i32 %21 to i64
  %23 = getelementptr inbounds [3100 x i8], [3100 x i8]* %2, i64 0, i64 %22
  store i8 0, i8* %23, align 1
  %24 = load i32, i32* %3, align 4
  %25 = add nsw i32 %24, 1
  store i32 %25, i32* %3, align 4
  %26 = getelementptr inbounds [100 x i32], [100 x i32]* %9, i64 0, i64 0
  store i32 0, i32* %26, align 16
  store i32 0, i32* %11, align 4
  br label %27

27:                                               ; preds = %105, %0
  %28 = load i32, i32* %11, align 4
  %29 = load i32, i32* %3, align 4
  %30 = icmp slt i32 %28, %29
  br i1 %30, label %31, label %108

31:                                               ; preds = %27
  %32 = load i32, i32* %11, align 4
  %33 = sext i32 %32 to i64
  %34 = getelementptr inbounds [3100 x i8], [3100 x i8]* %2, i64 0, i64 %33
  %35 = load i8, i8* %34, align 1
  %36 = sext i8 %35 to i32
  %37 = icmp eq i32 %36, 32
  br i1 %37, label %38, label %66

38:                                               ; preds = %31
  %39 = load i32, i32* %11, align 4
  %40 = load i32, i32* %10, align 4
  %41 = sext i32 %40 to i64
  %42 = getelementptr inbounds [100 x i32], [100 x i32]* %9, i64 0, i64 %41
  store i32 %39, i32* %42, align 4
  %43 = load i32, i32* %11, align 4
  %44 = add nsw i32 %43, 1
  %45 = load i32, i32* %10, align 4
  %46 = add nsw i32 %45, 1
  %47 = sext i32 %46 to i64
  %48 = getelementptr inbounds [100 x i32], [100 x i32]* %9, i64 0, i64 %47
  store i32 %44, i32* %48, align 4
  %49 = load i32, i32* %10, align 4
  %50 = sext i32 %49 to i64
  %51 = getelementptr inbounds [100 x i32], [100 x i32]* %9, i64 0, i64 %50
  %52 = load i32, i32* %51, align 4
  %53 = load i32, i32* %10, align 4
  %54 = sub nsw i32 %53, 1
  %55 = sext i32 %54 to i64
  %56 = getelementptr inbounds [100 x i32], [100 x i32]* %9, i64 0, i64 %55
  %57 = load i32, i32* %56, align 4
  %58 = sub nsw i32 %52, %57
  %59 = load i32, i32* %10, align 4
  %60 = sub nsw i32 %59, 1
  %61 = sdiv i32 %60, 2
  %62 = sext i32 %61 to i64
  %63 = getelementptr inbounds [100 x i32], [100 x i32]* %4, i64 0, i64 %62
  store i32 %58, i32* %63, align 4
  %64 = load i32, i32* %10, align 4
  %65 = add nsw i32 %64, 2
  store i32 %65, i32* %10, align 4
  br label %104

66:                                               ; preds = %31
  %67 = load i32, i32* %11, align 4
  %68 = sext i32 %67 to i64
  %69 = getelementptr inbounds [3100 x i8], [3100 x i8]* %2, i64 0, i64 %68
  %70 = load i8, i8* %69, align 1
  %71 = sext i8 %70 to i32
  %72 = icmp eq i32 %71, 44
  br i1 %72, label %73, label %103

73:                                               ; preds = %66
  %74 = load i32, i32* %11, align 4
  %75 = load i32, i32* %10, align 4
  %76 = sext i32 %75 to i64
  %77 = getelementptr inbounds [100 x i32], [100 x i32]* %9, i64 0, i64 %76
  store i32 %74, i32* %77, align 4
  %78 = load i32, i32* %11, align 4
  %79 = add nsw i32 %78, 2
  %80 = load i32, i32* %10, align 4
  %81 = add nsw i32 %80, 1
  %82 = sext i32 %81 to i64
  %83 = getelementptr inbounds [100 x i32], [100 x i32]* %9, i64 0, i64 %82
  store i32 %79, i32* %83, align 4
  %84 = load i32, i32* %10, align 4
  %85 = sext i32 %84 to i64
  %86 = getelementptr inbounds [100 x i32], [100 x i32]* %9, i64 0, i64 %85
  %87 = load i32, i32* %86, align 4
  %88 = load i32, i32* %10, align 4
  %89 = sub nsw i32 %88, 1
  %90 = sext i32 %89 to i64
  %91 = getelementptr inbounds [100 x i32], [100 x i32]* %9, i64 0, i64 %90
  %92 = load i32, i32* %91, align 4
  %93 = sub nsw i32 %87, %92
  %94 = load i32, i32* %10, align 4
  %95 = sub nsw i32 %94, 1
  %96 = sdiv i32 %95, 2
  %97 = sext i32 %96 to i64
  %98 = getelementptr inbounds [100 x i32], [100 x i32]* %4, i64 0, i64 %97
  store i32 %93, i32* %98, align 4
  %99 = load i32, i32* %10, align 4
  %100 = add nsw i32 %99, 2
  store i32 %100, i32* %10, align 4
  %101 = load i32, i32* %11, align 4
  %102 = add nsw i32 %101, 1
  store i32 %102, i32* %11, align 4
  br label %103

103:                                              ; preds = %73, %66
  br label %104

104:                                              ; preds = %103, %38
  br label %105

105:                                              ; preds = %104
  %106 = load i32, i32* %11, align 4
  %107 = add nsw i32 %106, 1
  store i32 %107, i32* %11, align 4
  br label %27

108:                                              ; preds = %27
  %109 = getelementptr inbounds [100 x i32], [100 x i32]* %4, i64 0, i64 0
  %110 = load i32, i32* %109, align 16
  store i32 %110, i32* %5, align 4
  %111 = getelementptr inbounds [100 x i32], [100 x i32]* %4, i64 0, i64 0
  %112 = load i32, i32* %111, align 16
  store i32 %112, i32* %6, align 4
  store i32 0, i32* %11, align 4
  br label %113

113:                                              ; preds = %146, %108
  %114 = load i32, i32* %11, align 4
  %115 = load i32, i32* %10, align 4
  %116 = sub nsw i32 %115, 3
  %117 = sdiv i32 %116, 2
  %118 = icmp sle i32 %114, %117
  br i1 %118, label %119, label %149

119:                                              ; preds = %113
  %120 = load i32, i32* %5, align 4
  %121 = load i32, i32* %11, align 4
  %122 = sext i32 %121 to i64
  %123 = getelementptr inbounds [100 x i32], [100 x i32]* %4, i64 0, i64 %122
  %124 = load i32, i32* %123, align 4
  %125 = icmp slt i32 %120, %124
  br i1 %125, label %126, label %132

126:                                              ; preds = %119
  %127 = load i32, i32* %11, align 4
  %128 = sext i32 %127 to i64
  %129 = getelementptr inbounds [100 x i32], [100 x i32]* %4, i64 0, i64 %128
  %130 = load i32, i32* %129, align 4
  store i32 %130, i32* %5, align 4
  %131 = load i32, i32* %11, align 4
  store i32 %131, i32* %7, align 4
  br label %132

132:                                              ; preds = %126, %119
  %133 = load i32, i32* %6, align 4
  %134 = load i32, i32* %11, align 4
  %135 = sext i32 %134 to i64
  %136 = getelementptr inbounds [100 x i32], [100 x i32]* %4, i64 0, i64 %135
  %137 = load i32, i32* %136, align 4
  %138 = icmp sgt i32 %133, %137
  br i1 %138, label %139, label %145

139:                                              ; preds = %132
  %140 = load i32, i32* %11, align 4
  %141 = sext i32 %140 to i64
  %142 = getelementptr inbounds [100 x i32], [100 x i32]* %4, i64 0, i64 %141
  %143 = load i32, i32* %142, align 4
  store i32 %143, i32* %6, align 4
  %144 = load i32, i32* %11, align 4
  store i32 %144, i32* %8, align 4
  br label %145

145:                                              ; preds = %139, %132
  br label %146

146:                                              ; preds = %145
  %147 = load i32, i32* %11, align 4
  %148 = add nsw i32 %147, 1
  store i32 %148, i32* %11, align 4
  br label %113

149:                                              ; preds = %113
  %150 = load i32, i32* %7, align 4
  %151 = mul nsw i32 %150, 2
  %152 = sext i32 %151 to i64
  %153 = getelementptr inbounds [100 x i32], [100 x i32]* %9, i64 0, i64 %152
  %154 = load i32, i32* %153, align 4
  store i32 %154, i32* %11, align 4
  br label %155

155:                                              ; preds = %171, %149
  %156 = load i32, i32* %11, align 4
  %157 = load i32, i32* %7, align 4
  %158 = mul nsw i32 %157, 2
  %159 = add nsw i32 %158, 1
  %160 = sext i32 %159 to i64
  %161 = getelementptr inbounds [100 x i32], [100 x i32]* %9, i64 0, i64 %160
  %162 = load i32, i32* %161, align 4
  %163 = icmp slt i32 %156, %162
  br i1 %163, label %164, label %174

164:                                              ; preds = %155
  %165 = load i32, i32* %11, align 4
  %166 = sext i32 %165 to i64
  %167 = getelementptr inbounds [3100 x i8], [3100 x i8]* %2, i64 0, i64 %166
  %168 = load i8, i8* %167, align 1
  %169 = sext i8 %168 to i32
  %170 = call i32 (i8*, ...) @printf(i8* getelementptr inbounds ([3 x i8], [3 x i8]* @.str, i64 0, i64 0), i32 %169)
  br label %171

171:                                              ; preds = %164
  %172 = load i32, i32* %11, align 4
  %173 = add nsw i32 %172, 1
  store i32 %173, i32* %11, align 4
  br label %155

174:                                              ; preds = %155
  %175 = call i32 (i8*, ...) @printf(i8* getelementptr inbounds ([2 x i8], [2 x i8]* @.str.1, i64 0, i64 0))
  %176 = load i32, i32* %8, align 4
  %177 = mul nsw i32 %176, 2
  %178 = sext i32 %177 to i64
  %179 = getelementptr inbounds [100 x i32], [100 x i32]* %9, i64 0, i64 %178
  %180 = load i32, i32* %179, align 4
  store i32 %180, i32* %11, align 4
  br label %181

181:                                              ; preds = %197, %174
  %182 = load i32, i32* %11, align 4
  %183 = load i32, i32* %8, align 4
  %184 = mul nsw i32 %183, 2
  %185 = add nsw i32 %184, 1
  %186 = sext i32 %185 to i64
  %187 = getelementptr inbounds [100 x i32], [100 x i32]* %9, i64 0, i64 %186
  %188 = load i32, i32* %187, align 4
  %189 = icmp slt i32 %182, %188
  br i1 %189, label %190, label %200

190:                                              ; preds = %181
  %191 = load i32, i32* %11, align 4
  %192 = sext i32 %191 to i64
  %193 = getelementptr inbounds [3100 x i8], [3100 x i8]* %2, i64 0, i64 %192
  %194 = load i8, i8* %193, align 1
  %195 = sext i8 %194 to i32
  %196 = call i32 (i8*, ...) @printf(i8* getelementptr inbounds ([3 x i8], [3 x i8]* @.str, i64 0, i64 0), i32 %195)
  br label %197

197:                                              ; preds = %190
  %198 = load i32, i32* %11, align 4
  %199 = add nsw i32 %198, 1
  store i32 %199, i32* %11, align 4
  br label %181

200:                                              ; preds = %181
  %201 = call i32 (i8*, ...) @printf(i8* getelementptr inbounds ([2 x i8], [2 x i8]* @.str.1, i64 0, i64 0))
  ret i32 0
}

declare dso_local i32 @gets(...) #1

; Function Attrs: nounwind readonly
declare dso_local i64 @strlen(i8*) #2

declare dso_local i32 @printf(i8*, ...) #1


!llvm.module.flags = !{!0}
!llvm.ident = !{!1}

!0 = !{i32 1, !"wchar_size", i32 4}
!1 = !{!"clang version 10.0.0-4ubuntu1 "}
